; Function Attrs: mustprogress uwtable
define hidden void @_ZN6spacer12anti_unifierC2ER11ast_manager(ptr noundef nonnull align 8 dereferenceable(64) %this, ptr noundef nonnull align 8 dereferenceable(976) %manager) unnamed_addr #3 align 2 personality ptr @__gxx_personality_v0 {
entry:
  store ptr %manager, ptr %this, align 8
  %m_pinned = getelementptr inbounds i8, ptr %this, i64 8
  %0 = ptrtoint ptr %manager to i64
  store i64 %0, ptr %m_pinned, align 8
  %m_nodes.i.i = getelementptr inbounds i8, ptr %this, i64 16
  tail call void @llvm.memset.p0.i64(ptr noundef nonnull align 8 dereferenceable(16) %m_nodes.i.i, i8 0, i64 16, i1 false)
  %call.i.i.i.i1 = invoke noalias noundef ptr @_ZN6memory8allocateEm(i64 noundef 256)
          to label %invoke.cont4 unwind label %lpad3

invoke.cont4:                                     ; preds = %entry
  %m_cache = getelementptr inbounds i8, ptr %this, i64 32
  tail call void @llvm.memset.p0.i64(ptr noundef nonnull align 8 dereferenceable(256) %call.i.i.i.i1, i8 0, i64 256, i1 false)
  store ptr %call.i.i.i.i1, ptr %m_cache, align 8
  %m_capacity.i.i = getelementptr inbounds i8, ptr %this, i64 40
  store i32 8, ptr %m_capacity.i.i, align 8
  %m_size.i.i = getelementptr inbounds i8, ptr %this, i64 44
  store i32 0, ptr %m_size.i.i, align 4
  %m_num_deleted.i.i = getelementptr inbounds i8, ptr %this, i64 48
  store i32 0, ptr %m_num_deleted.i.i, align 8
  %m_subs = getelementptr inbounds i8, ptr %this, i64 56
  store ptr null, ptr %m_subs, align 8
  ret void

lpad3:                                            ; preds = %entry
  %1 = landingpad { ptr, i32 }
          cleanup
  %m_todo = getelementptr inbounds i8, ptr %this, i64 24
  tail call void @_ZN7svectorISt4pairIP4exprS2_EjED2Ev(ptr noundef nonnull align 8 dereferenceable(8) %m_todo) #17
  tail call void @_ZN10ref_vectorI4expr11ast_managerED2Ev(ptr noundef nonnull align 8 dereferenceable(16) %m_pinned) #17
  resume { ptr, i32 } %1
}